target datalayout = "e-m:e-p270:32:32-p271:32:32-p272:64:64-i64:64-i128:128-f80:128-n8:16:32:64-S128"
target triple = "x86_64-unknown-linux-gnu"

%struct.tdefl_output_buffer = type { i64, i64, ptr, i32 }

; Function Attrs: nounwind uwtable
define hidden ptr @tdefl_compress_mem_to_heap(ptr noundef %pSrc_buf, i64 noundef %src_buf_len, ptr noundef %pOut_len, i32 noundef %flags) #0 {
entry:
  %retval = alloca ptr, align 8
  %pSrc_buf.addr = alloca ptr, align 8
  %src_buf_len.addr = alloca i64, align 8
  %pOut_len.addr = alloca ptr, align 8
  %flags.addr = alloca i32, align 4
  %out_buf = alloca %struct.tdefl_output_buffer, align 8
  store ptr %pSrc_buf, ptr %pSrc_buf.addr, align 8
  store i64 %src_buf_len, ptr %src_buf_len.addr, align 8
  store ptr %pOut_len, ptr %pOut_len.addr, align 8
  store i32 %flags, ptr %flags.addr, align 4
  call void @llvm.memset.p0.i64(ptr align 8 %out_buf, i8 0, i64 32, i1 false)
  %0 = load ptr, ptr %pOut_len.addr, align 8
  %tobool = icmp ne ptr %0, null
  br i1 %tobool, label %if.else, label %if.then

if.then:                                          ; preds = %entry
  store ptr null, ptr %retval, align 8
  br label %return

if.else:                                          ; preds = %entry
  %1 = load ptr, ptr %pOut_len.addr, align 8
  store i64 0, ptr %1, align 8
  br label %if.end

if.end:                                           ; preds = %if.else
  %m_expandable = getelementptr inbounds %struct.tdefl_output_buffer, ptr %out_buf, i32 0, i32 3
  store i32 1, ptr %m_expandable, align 8
  %2 = load ptr, ptr %pSrc_buf.addr, align 8
  %3 = load i64, ptr %src_buf_len.addr, align 8
  %4 = load i32, ptr %flags.addr, align 4
  %call = call i32 @tdefl_compress_mem_to_output(ptr noundef %2, i64 noundef %3, ptr noundef @tdefl_output_buffer_putter, ptr noundef %out_buf, i32 noundef %4)
  %tobool1 = icmp ne i32 %call, 0
  br i1 %tobool1, label %if.end3, label %if.then2

if.then2:                                         ; preds = %if.end
  store ptr null, ptr %retval, align 8
  br label %return

if.end3:                                          ; preds = %if.end
  %m_size = getelementptr inbounds %struct.tdefl_output_buffer, ptr %out_buf, i32 0, i32 0
  %5 = load i64, ptr %m_size, align 8
  %6 = load ptr, ptr %pOut_len.addr, align 8
  store i64 %5, ptr %6, align 8
  %m_pBuf = getelementptr inbounds %struct.tdefl_output_buffer, ptr %out_buf, i32 0, i32 2
  %7 = load ptr, ptr %m_pBuf, align 8
  store ptr %7, ptr %retval, align 8
  br label %return

return:                                           ; preds = %if.end3, %if.then2, %if.then
  %8 = load ptr, ptr %retval, align 8
  ret ptr %8
}