; Function Attrs: nounwind uwtable
define hidden ptr @tdefl_compress_mem_to_heap(ptr noundef %pSrc_buf, i64 noundef %src_buf_len, ptr noundef writeonly %pOut_len, i32 noundef %flags) local_unnamed_addr #4 {
entry:
  %out_buf = alloca %struct.tdefl_output_buffer, align 8
  call void @llvm.memset.p0.i64(ptr noundef nonnull align 8 dereferenceable(32) %out_buf, i8 0, i64 32, i1 false)
  %tobool.not = icmp eq ptr %pOut_len, null
  br i1 %tobool.not, label %return, label %if.else

if.else:                                          ; preds = %entry
  store i64 0, ptr %pOut_len, align 8
  %m_expandable = getelementptr inbounds nuw i8, ptr %out_buf, i64 24
  store i32 1, ptr %m_expandable, align 8
  %call = call i32 @tdefl_compress_mem_to_output(ptr noundef %pSrc_buf, i64 noundef %src_buf_len, ptr noundef nonnull @tdefl_output_buffer_putter, ptr noundef nonnull %out_buf, i32 noundef %flags)
  %tobool1.not = icmp eq i32 %call, 0
  br i1 %tobool1.not, label %return, label %if.end3

if.end3:                                          ; preds = %if.else
  %0 = load i64, ptr %out_buf, align 8
  store i64 %0, ptr %pOut_len, align 8
  %m_pBuf = getelementptr inbounds nuw i8, ptr %out_buf, i64 16
  %1 = load ptr, ptr %m_pBuf, align 8
  br label %return

return:                                           ; preds = %if.else, %entry, %if.end3
  %retval.0 = phi ptr [ %1, %if.end3 ], [ null, %entry ], [ null, %if.else ]
  ret ptr %retval.0
}